target datalayout = "e-m:e-p270:32:32-p271:32:32-p272:64:64-i64:64-i128:128-f80:128-n8:16:32:64-S128"
target triple = "x86_64-unknown-linux-gnu"

%"class.std::__cxx11::basic_string" = type { %"struct.std::__cxx11::basic_string<char>::_Alloc_hider", i64, %union.anon }
%"struct.std::__cxx11::basic_string<char>::_Alloc_hider" = type { ptr }
%union.anon = type { i64, [8 x i8] }
%"class.rocksdb::blob_db::BlobFile" = type <{ ptr, %"class.std::__cxx11::basic_string", i64, %"class.std::unordered_set", ptr, i32, i8, i8, [2 x i8], %"struct.std::pair", %"struct.std::atomic", %"struct.std::atomic", %"struct.rocksdb::BlobLogHeader", %"struct.std::atomic.8", [7 x i8], i64, %"struct.std::atomic.8", [7 x i8], i64, %"class.std::shared_ptr", %"class.std::shared_ptr.10", %"class.rocksdb::port::RWMutex", %"struct.std::atomic.13", i8, i8, [6 x i8] }>
%"class.std::unordered_set" = type { %"class.std::_Hashtable" }
%"class.std::_Hashtable" = type { ptr, i64, %"struct.std::__detail::_Hash_node_base", i64, %"struct.std::__detail::_Prime_rehash_policy", ptr }
%"struct.std::__detail::_Hash_node_base" = type { ptr }
%"struct.std::__detail::_Prime_rehash_policy" = type { float, i64 }
%"struct.std::pair" = type { i64, i64 }
%"struct.std::atomic" = type { %"struct.std::__atomic_base" }
%"struct.std::__atomic_base" = type { i64 }
%"struct.rocksdb::BlobLogHeader" = type { i32, i32, i8, i8, %"struct.std::pair" }
%"struct.std::atomic.8" = type { %"struct.std::__atomic_base.9" }
%"struct.std::__atomic_base.9" = type { i8 }
%"class.std::shared_ptr" = type { %"class.std::__shared_ptr" }
%"class.std::__shared_ptr" = type { ptr, %"class.std::__shared_count" }
%"class.std::__shared_count" = type { ptr }
%"class.std::shared_ptr.10" = type { %"class.std::__shared_ptr.11" }
%"class.std::__shared_ptr.11" = type { ptr, %"class.std::__shared_count" }
%"class.rocksdb::port::RWMutex" = type { %union.pthread_rwlock_t }
%union.pthread_rwlock_t = type { %struct.__pthread_rwlock_arch_t }
%struct.__pthread_rwlock_arch_t = type { i32, i32, i32, i32, i32, i32, i32, i32, i8, [7 x i8], i64, i32 }
%"struct.std::atomic.13" = type { %"struct.std::__atomic_base.14" }
%"struct.std::__atomic_base.14" = type { i64 }
%"class.std::__shared_ptr.16" = type { ptr, %"class.std::__shared_count" }

; Function Attrs: mustprogress nounwind uwtable
define linkonce_odr noundef ptr @_ZNKSt12__shared_ptrIN7rocksdb7blob_db8BlobFileELN9__gnu_cxx12_Lock_policyE2EE3getEv(ptr noundef nonnull align 8 dereferenceable(16) %this) #1 comdat align 2 {
entry:
  %this.addr = alloca ptr, align 8
  store ptr %this, ptr %this.addr, align 8
  %this1 = load ptr, ptr %this.addr, align 8
  %_M_ptr = getelementptr inbounds %"class.std::__shared_ptr.16", ptr %this1, i32 0, i32 0
  %0 = load ptr, ptr %_M_ptr, align 8
  ret ptr %0
}

; Function Attrs: mustprogress nounwind uwtable
define linkonce_odr noundef ptr @_ZNKSt19__shared_ptr_accessIN7rocksdb7blob_db8BlobFileELN9__gnu_cxx12_Lock_policyE2ELb0ELb0EE6_M_getEv(ptr noundef nonnull align 1 dereferenceable(1) %this) #1 comdat align 2 {
entry:
  %this.addr = alloca ptr, align 8
  store ptr %this, ptr %this.addr, align 8
  %this1 = load ptr, ptr %this.addr, align 8
  %call = call noundef ptr @_ZNKSt12__shared_ptrIN7rocksdb7blob_db8BlobFileELN9__gnu_cxx12_Lock_policyE2EE3getEv(ptr noundef nonnull align 8 dereferenceable(16) %this1) #3
  ret ptr %call
}

; Function Attrs: mustprogress nounwind uwtable
define linkonce_odr noundef i64 @_ZNK7rocksdb7blob_db8BlobFile14BlobFileNumberEv(ptr noundef nonnull align 8 dereferenceable(314) %this) #1 comdat align 2 {
entry:
  %this.addr = alloca ptr, align 8
  store ptr %this, ptr %this.addr, align 8
  %this1 = load ptr, ptr %this.addr, align 8
  %file_number_ = getelementptr inbounds %"class.rocksdb::blob_db::BlobFile", ptr %this1, i32 0, i32 2
  %0 = load i64, ptr %file_number_, align 8
  ret i64 %0
}

; Function Attrs: mustprogress nounwind uwtable
define linkonce_odr noundef ptr @_ZNKSt19__shared_ptr_accessIN7rocksdb7blob_db8BlobFileELN9__gnu_cxx12_Lock_policyE2ELb0ELb0EEptEv(ptr noundef nonnull align 1 dereferenceable(1) %this) #1 comdat align 2 {
entry:
  %this.addr = alloca ptr, align 8
  store ptr %this, ptr %this.addr, align 8
  %this1 = load ptr, ptr %this.addr, align 8
  %call = call noundef ptr @_ZNKSt19__shared_ptr_accessIN7rocksdb7blob_db8BlobFileELN9__gnu_cxx12_Lock_policyE2ELb0ELb0EE6_M_getEv(ptr noundef nonnull align 1 dereferenceable(1) %this1) #3
  ret ptr %call
}

; Function Attrs: mustprogress uwtable
define noundef zeroext i1 @_ZNK7rocksdb7blob_db21BlobFileComparatorTTLclERKSt10shared_ptrINS0_8BlobFileEES6_(ptr noundef nonnull align 1 dereferenceable(1) %this, ptr noundef nonnull align 8 dereferenceable(16) %lhs, ptr noundef nonnull align 8 dereferenceable(16) %rhs) #0 align 2 {
entry:
  %retval = alloca i1, align 1
  %this.addr = alloca ptr, align 8
  %lhs.addr = alloca ptr, align 8
  %rhs.addr = alloca ptr, align 8
  store ptr %this, ptr %this.addr, align 8
  store ptr %lhs, ptr %lhs.addr, align 8
  store ptr %rhs, ptr %rhs.addr, align 8
  %0 = load ptr, ptr %lhs.addr, align 8
  %call = call noundef ptr @_ZNKSt19__shared_ptr_accessIN7rocksdb7blob_db8BlobFileELN9__gnu_cxx12_Lock_policyE2ELb0ELb0EEptEv(ptr noundef nonnull align 1 dereferenceable(1) %0) #3
  %expiration_range_ = getelementptr inbounds %"class.rocksdb::blob_db::BlobFile", ptr %call, i32 0, i32 9
  %first = getelementptr inbounds %"struct.std::pair", ptr %expiration_range_, i32 0, i32 0
  %1 = load i64, ptr %first, align 8
  %2 = load ptr, ptr %rhs.addr, align 8
  %call2 = call noundef ptr @_ZNKSt19__shared_ptr_accessIN7rocksdb7blob_db8BlobFileELN9__gnu_cxx12_Lock_policyE2ELb0ELb0EEptEv(ptr noundef nonnull align 1 dereferenceable(1) %2) #3
  %expiration_range_3 = getelementptr inbounds %"class.rocksdb::blob_db::BlobFile", ptr %call2, i32 0, i32 9
  %first4 = getelementptr inbounds %"struct.std::pair", ptr %expiration_range_3, i32 0, i32 0
  %3 = load i64, ptr %first4, align 8
  %cmp = icmp ult i64 %1, %3
  br i1 %cmp, label %if.then, label %if.end

if.then:                                          ; preds = %entry
  store i1 true, ptr %retval, align 1
  br label %return

if.end:                                           ; preds = %entry
  %4 = load ptr, ptr %lhs.addr, align 8
  %call5 = call noundef ptr @_ZNKSt19__shared_ptr_accessIN7rocksdb7blob_db8BlobFileELN9__gnu_cxx12_Lock_policyE2ELb0ELb0EEptEv(ptr noundef nonnull align 1 dereferenceable(1) %4) #3
  %expiration_range_6 = getelementptr inbounds %"class.rocksdb::blob_db::BlobFile", ptr %call5, i32 0, i32 9
  %first7 = getelementptr inbounds %"struct.std::pair", ptr %expiration_range_6, i32 0, i32 0
  %5 = load i64, ptr %first7, align 8
  %6 = load ptr, ptr %rhs.addr, align 8
  %call8 = call noundef ptr @_ZNKSt19__shared_ptr_accessIN7rocksdb7blob_db8BlobFileELN9__gnu_cxx12_Lock_policyE2ELb0ELb0EEptEv(ptr noundef nonnull align 1 dereferenceable(1) %6) #3
  %expiration_range_9 = getelementptr inbounds %"class.rocksdb::blob_db::BlobFile", ptr %call8, i32 0, i32 9
  %first10 = getelementptr inbounds %"struct.std::pair", ptr %expiration_range_9, i32 0, i32 0
  %7 = load i64, ptr %first10, align 8
  %cmp11 = icmp ugt i64 %5, %7
  br i1 %cmp11, label %if.then12, label %if.end13

if.then12:                                        ; preds = %if.end
  store i1 false, ptr %retval, align 1
  br label %return

if.end13:                                         ; preds = %if.end
  %8 = load ptr, ptr %lhs.addr, align 8
  %call14 = call noundef ptr @_ZNKSt19__shared_ptr_accessIN7rocksdb7blob_db8BlobFileELN9__gnu_cxx12_Lock_policyE2ELb0ELb0EEptEv(ptr noundef nonnull align 1 dereferenceable(1) %8) #3
  %call15 = call noundef i64 @_ZNK7rocksdb7blob_db8BlobFile14BlobFileNumberEv(ptr noundef nonnull align 8 dereferenceable(314) %call14)
  %9 = load ptr, ptr %rhs.addr, align 8
  %call16 = call noundef ptr @_ZNKSt19__shared_ptr_accessIN7rocksdb7blob_db8BlobFileELN9__gnu_cxx12_Lock_policyE2ELb0ELb0EEptEv(ptr noundef nonnull align 1 dereferenceable(1) %9) #3
  %call17 = call noundef i64 @_ZNK7rocksdb7blob_db8BlobFile14BlobFileNumberEv(ptr noundef nonnull align 8 dereferenceable(314) %call16)
  %cmp18 = icmp ult i64 %call15, %call17
  store i1 %cmp18, ptr %retval, align 1
  br label %return

return:                                           ; preds = %if.end13, %if.then12, %if.then
  %10 = load i1, ptr %retval, align 1
  ret i1 %10
}