; Function Attrs: mustprogress nofree norecurse nosync nounwind willreturn memory(read, inaccessiblemem: none) uwtable
define noundef zeroext i1 @_ZNK7rocksdb7blob_db21BlobFileComparatorTTLclERKSt10shared_ptrINS0_8BlobFileEES6_(ptr nocapture noundef nonnull readnone align 1 dereferenceable(1) %this, ptr nocapture noundef nonnull readonly align 8 dereferenceable(16) %lhs, ptr nocapture noundef nonnull readonly align 8 dereferenceable(16) %rhs) local_unnamed_addr #2 align 2 {
entry:
  %0 = load ptr, ptr %lhs, align 8
  %expiration_range_ = getelementptr inbounds i8, ptr %0, i64 120
  %1 = load i64, ptr %expiration_range_, align 8
  %2 = load ptr, ptr %rhs, align 8
  %expiration_range_3 = getelementptr inbounds i8, ptr %2, i64 120
  %3 = load i64, ptr %expiration_range_3, align 8
  %cmp = icmp ult i64 %1, %3
  br i1 %cmp, label %return, label %if.end

if.end:                                           ; preds = %entry
  %cmp11 = icmp ugt i64 %1, %3
  br i1 %cmp11, label %return, label %if.end13

if.end13:                                         ; preds = %if.end
  %file_number_.i = getelementptr inbounds i8, ptr %0, i64 40
  %4 = load i64, ptr %file_number_.i, align 8
  %file_number_.i5 = getelementptr inbounds i8, ptr %2, i64 40
  %5 = load i64, ptr %file_number_.i5, align 8
  %cmp18 = icmp ult i64 %4, %5
  br label %return

return:                                           ; preds = %if.end, %entry, %if.end13
  %retval.0 = phi i1 [ %cmp18, %if.end13 ], [ true, %entry ], [ false, %if.end ]
  ret i1 %retval.0
}